; Function Attrs: mustprogress uwtable
define internal fastcc void @_ZL13b3FetchLeavesP12b3DynamicBvhP10b3DbvtNodeR20b3AlignedObjectArrayIS2_Ei(ptr noundef nonnull %0, ptr noundef %1, ptr noundef nonnull align 8 dereferenceable(25) %2, i32 noundef %3) unnamed_addr #2 {
  %5 = getelementptr inbounds nuw i8, ptr %1, i64 48
  %6 = load ptr, ptr %5, align 8, !tbaa !32
  %7 = icmp ne ptr %6, null
  %8 = icmp ne i32 %3, 0
  %or.cond = and i1 %8, %7
  br i1 %or.cond, label %9, label %16

common.ret12:                                     ; preds = %9, %_ZN20b3AlignedObjectArrayIP10b3DbvtNodeE9push_backERKS1_.exit
  ret void

9:                                                ; preds = %4
  %10 = getelementptr inbounds nuw i8, ptr %1, i64 40
  %11 = load ptr, ptr %10, align 8, !tbaa !32
  %12 = add nsw i32 %3, -1
  tail call fastcc void @_ZL13b3FetchLeavesP12b3DynamicBvhP10b3DbvtNodeR20b3AlignedObjectArrayIS2_Ei(ptr noundef %0, ptr noundef %11, ptr noundef nonnull align 8 dereferenceable(25) %2, i32 noundef %12)
  %13 = load ptr, ptr %5, align 8, !tbaa !32
  tail call fastcc void @_ZL13b3FetchLeavesP12b3DynamicBvhP10b3DbvtNodeR20b3AlignedObjectArrayIS2_Ei(ptr noundef %0, ptr noundef %13, ptr noundef nonnull align 8 dereferenceable(25) %2, i32 noundef %12)
  %14 = getelementptr inbounds nuw i8, ptr %0, i64 8
  %15 = load ptr, ptr %14, align 8, !tbaa !29
  tail call void @_Z21b3AlignedFreeInternalPv(ptr noundef %15)
  store ptr %1, ptr %14, align 8, !tbaa !29
  br label %common.ret12

16:                                               ; preds = %4
  %17 = getelementptr inbounds nuw i8, ptr %2, i64 4
  %18 = load i32, ptr %17, align 4, !tbaa !37
  %19 = getelementptr inbounds nuw i8, ptr %2, i64 8
  %20 = load i32, ptr %19, align 8, !tbaa !38
  %21 = icmp eq i32 %18, %20
  br i1 %21, label %22, label %_ZN20b3AlignedObjectArrayIP10b3DbvtNodeE9push_backERKS1_.exit

22:                                               ; preds = %16
  %.not.i.i = icmp eq i32 %18, 0
  %23 = shl nsw i32 %18, 1
  %24 = select i1 %.not.i.i, i32 1, i32 %23
  %25 = icmp slt i32 %18, %24
  br i1 %25, label %26, label %_ZN20b3AlignedObjectArrayIP10b3DbvtNodeE9push_backERKS1_.exit

26:                                               ; preds = %22
  %.not.i.i.i = icmp eq i32 %24, 0
  br i1 %.not.i.i.i, label %_ZNK20b3AlignedObjectArrayIP10b3DbvtNodeE4copyEiiPS1_.exit15.i.i, label %_ZN20b3AlignedObjectArrayIP10b3DbvtNodeE8allocateEi.exit.i.i

_ZN20b3AlignedObjectArrayIP10b3DbvtNodeE8allocateEi.exit.i.i: ; preds = %26
  %27 = sext i32 %24 to i64
  %28 = shl nsw i64 %27, 3
  %29 = tail call noundef ptr @_Z22b3AlignedAllocInternalmi(i64 noundef %28, i32 noundef 16)
  %30 = icmp eq ptr %29, null
  br i1 %30, label %_ZNK20b3AlignedObjectArrayIP10b3DbvtNodeE4copyEiiPS1_.exit15.i.i, label %.split.i.i

.split.i.i:                                       ; preds = %_ZN20b3AlignedObjectArrayIP10b3DbvtNodeE8allocateEi.exit.i.i
  %31 = load i32, ptr %17, align 4, !tbaa !37
  %32 = icmp sgt i32 %31, 0
  br i1 %32, label %.lr.ph.i.i.i, label %_ZNK20b3AlignedObjectArrayIP10b3DbvtNodeE4copyEiiPS1_.exit.i.i

.lr.ph.i.i.i:                                     ; preds = %.split.i.i
  %33 = getelementptr inbounds nuw i8, ptr %2, i64 16
  %34 = load ptr, ptr %33, align 8, !tbaa !36
  %wide.trip.count.i.i.i = zext nneg i32 %31 to i64
  br label %35

35:                                               ; preds = %35, %.lr.ph.i.i.i
  %indvars.iv.i.i.i = phi i64 [ 0, %.lr.ph.i.i.i ], [ %indvars.iv.next.i.i.i, %35 ]
  %36 = getelementptr inbounds nuw ptr, ptr %29, i64 %indvars.iv.i.i.i
  %37 = getelementptr inbounds nuw ptr, ptr %34, i64 %indvars.iv.i.i.i
  %38 = load ptr, ptr %37, align 8, !tbaa !39
  store ptr %38, ptr %36, align 8, !tbaa !39
  %indvars.iv.next.i.i.i = add nuw nsw i64 %indvars.iv.i.i.i, 1
  %exitcond.not.i.i.i = icmp eq i64 %indvars.iv.next.i.i.i, %wide.trip.count.i.i.i
  br i1 %exitcond.not.i.i.i, label %_ZNK20b3AlignedObjectArrayIP10b3DbvtNodeE4copyEiiPS1_.exit.i.i, label %35, !llvm.loop !40

_ZNK20b3AlignedObjectArrayIP10b3DbvtNodeE4copyEiiPS1_.exit15.i.i: ; preds = %_ZN20b3AlignedObjectArrayIP10b3DbvtNodeE8allocateEi.exit.i.i, %26
  tail call void (ptr, ...) @b3OutputErrorMessageVarArgsInternal(ptr noundef nonnull @.str, ptr noundef nonnull @.str.1, i32 noundef 301)
  tail call void (ptr, ...) @b3OutputErrorMessageVarArgsInternal(ptr noundef nonnull @.str.2)
  store i32 0, ptr %17, align 4, !tbaa !37
  br label %_ZNK20b3AlignedObjectArrayIP10b3DbvtNodeE4copyEiiPS1_.exit.i.i

_ZNK20b3AlignedObjectArrayIP10b3DbvtNodeE4copyEiiPS1_.exit.i.i: ; preds = %35, %_ZNK20b3AlignedObjectArrayIP10b3DbvtNodeE4copyEiiPS1_.exit15.i.i, %.split.i.i
  %.pre3.i = phi i32 [ 0, %_ZNK20b3AlignedObjectArrayIP10b3DbvtNodeE4copyEiiPS1_.exit15.i.i ], [ %31, %.split.i.i ], [ %31, %35 ]
  %.0.i18.i.i = phi ptr [ null, %_ZNK20b3AlignedObjectArrayIP10b3DbvtNodeE4copyEiiPS1_.exit15.i.i ], [ %29, %.split.i.i ], [ %29, %35 ]
  %.0.i.i = phi i32 [ 0, %_ZNK20b3AlignedObjectArrayIP10b3DbvtNodeE4copyEiiPS1_.exit15.i.i ], [ %24, %.split.i.i ], [ %24, %35 ]
  %39 = getelementptr inbounds nuw i8, ptr %2, i64 16
  %40 = load ptr, ptr %39, align 8, !tbaa !36
  %.not.i16.i.i = icmp eq ptr %40, null
  br i1 %.not.i16.i.i, label %_ZN20b3AlignedObjectArrayIP10b3DbvtNodeE10deallocateEv.exit.i.i, label %41

41:                                               ; preds = %_ZNK20b3AlignedObjectArrayIP10b3DbvtNodeE4copyEiiPS1_.exit.i.i
  %42 = getelementptr inbounds nuw i8, ptr %2, i64 24
  %43 = load i8, ptr %42, align 8, !tbaa !33, !range !30, !noundef !31
  %44 = trunc nuw i8 %43 to i1
  br i1 %44, label %45, label %_ZN20b3AlignedObjectArrayIP10b3DbvtNodeE10deallocateEv.exit.i.i

45:                                               ; preds = %41
  tail call void @_Z21b3AlignedFreeInternalPv(ptr noundef nonnull %40)
  %.pre.pre.i = load i32, ptr %17, align 4, !tbaa !37
  br label %_ZN20b3AlignedObjectArrayIP10b3DbvtNodeE10deallocateEv.exit.i.i

_ZN20b3AlignedObjectArrayIP10b3DbvtNodeE10deallocateEv.exit.i.i: ; preds = %45, %41, %_ZNK20b3AlignedObjectArrayIP10b3DbvtNodeE4copyEiiPS1_.exit.i.i
  %.pre.i = phi i32 [ %.pre.pre.i, %45 ], [ %.pre3.i, %41 ], [ %.pre3.i, %_ZNK20b3AlignedObjectArrayIP10b3DbvtNodeE4copyEiiPS1_.exit.i.i ]
  %46 = getelementptr inbounds nuw i8, ptr %2, i64 24
  store i8 1, ptr %46, align 8, !tbaa !33
  store ptr %.0.i18.i.i, ptr %39, align 8, !tbaa !36
  store i32 %.0.i.i, ptr %19, align 8, !tbaa !38
  br label %_ZN20b3AlignedObjectArrayIP10b3DbvtNodeE9push_backERKS1_.exit

_ZN20b3AlignedObjectArrayIP10b3DbvtNodeE9push_backERKS1_.exit: ; preds = %16, %22, %_ZN20b3AlignedObjectArrayIP10b3DbvtNodeE10deallocateEv.exit.i.i
  %47 = phi i32 [ %.pre.i, %_ZN20b3AlignedObjectArrayIP10b3DbvtNodeE10deallocateEv.exit.i.i ], [ %18, %22 ], [ %18, %16 ]
  %48 = getelementptr inbounds nuw i8, ptr %2, i64 16
  %49 = load ptr, ptr %48, align 8, !tbaa !36
  %50 = sext i32 %47 to i64
  %51 = getelementptr inbounds ptr, ptr %49, i64 %50
  store ptr %1, ptr %51, align 8, !tbaa !39
  %52 = add nsw i32 %47, 1
  store i32 %52, ptr %17, align 4, !tbaa !37
  br label %common.ret12
}